target datalayout = "e-m:e-p270:32:32-p271:32:32-p272:64:64-i64:64-i128:128-f80:128-n8:16:32:64-S128"
target triple = "x86_64-pc-linux-gnu"

@dim_grid_size = internal global i32 -1, align 4
@offset = internal global [5 x i32] zeroinitializer, align 16
@bit_grid = internal global ptr null, align 8
@grid_start = internal global [5 x i32] zeroinitializer, align 16
@grid_end = internal global [5 x i32] zeroinitializer, align 16

; Function Attrs: nounwind uwtable
define internal i32 @_tell_if_used(i32 noundef %0, i32 noundef %1, ptr noundef %2, ptr noundef %3, ptr noundef %4, ptr noundef %5, i32 noundef %6) #0 {
  %8 = alloca i32, align 4
  %9 = alloca i32, align 4
  %10 = alloca i32, align 4
  %11 = alloca ptr, align 8
  %12 = alloca ptr, align 8
  %13 = alloca ptr, align 8
  %14 = alloca ptr, align 8
  %15 = alloca i32, align 4
  %16 = alloca i32, align 4
  %17 = alloca i32, align 4
  %18 = alloca i32, align 4
  store i32 %0, ptr %9, align 4
  store i32 %1, ptr %10, align 4
  store ptr %2, ptr %11, align 8
  store ptr %3, ptr %12, align 8
  store ptr %4, ptr %13, align 8
  store ptr %5, ptr %14, align 8
  store i32 %6, ptr %15, align 4
  call void @llvm.lifetime.start.p0(i64 4, ptr %16) #13
  store i32 1, ptr %16, align 4
  call void @llvm.lifetime.start.p0(i64 4, ptr %17) #13
  %19 = load i32, ptr %10, align 4
  store i32 %19, ptr %17, align 4
  %20 = load ptr, ptr %11, align 8
  %21 = load i32, ptr %9, align 4
  %22 = sext i32 %21 to i64
  %23 = getelementptr inbounds i32, ptr %20, i64 %22
  %24 = load i32, ptr %23, align 4
  %25 = load ptr, ptr %13, align 8
  %26 = load i32, ptr %9, align 4
  %27 = sext i32 %26 to i64
  %28 = getelementptr inbounds i32, ptr %25, i64 %27
  store i32 %24, ptr %28, align 4
  br label %29

29:                                               ; preds = %159, %7
  %30 = load ptr, ptr %13, align 8
  %31 = load i32, ptr %9, align 4
  %32 = sext i32 %31 to i64
  %33 = getelementptr inbounds i32, ptr %30, i64 %32
  %34 = load i32, ptr %33, align 4
  %35 = load i32, ptr %9, align 4
  %36 = sext i32 %35 to i64
  %37 = getelementptr inbounds [5 x i32], ptr @grid_end, i64 0, i64 %36
  %38 = load i32, ptr %37, align 4
  %39 = icmp sle i32 %34, %38
  br i1 %39, label %40, label %166

40:                                               ; preds = %29
  %41 = load i32, ptr %17, align 4
  %42 = load ptr, ptr %13, align 8
  %43 = load i32, ptr %9, align 4
  %44 = sext i32 %43 to i64
  %45 = getelementptr inbounds i32, ptr %42, i64 %44
  %46 = load i32, ptr %45, align 4
  %47 = load i32, ptr %9, align 4
  %48 = sext i32 %47 to i64
  %49 = getelementptr inbounds [5 x i32], ptr @offset, i64 0, i64 %48
  %50 = load i32, ptr %49, align 4
  %51 = mul nsw i32 %46, %50
  %52 = add nsw i32 %41, %51
  store i32 %52, ptr %10, align 4
  %53 = load i32, ptr %9, align 4
  %54 = load i32, ptr %15, align 4
  %55 = sub nsw i32 %54, 1
  %56 = icmp eq i32 %53, %55
  br i1 %56, label %57, label %118

57:                                               ; preds = %40
  %58 = load ptr, ptr @bit_grid, align 8
  %59 = load i32, ptr %10, align 4
  %60 = sext i32 %59 to i64
  %61 = call i32 @slurm_bit_test(ptr noundef %58, i64 noundef %60)
  %62 = icmp ne i32 %61, 0
  br i1 %62, label %89, label %63

63:                                               ; preds = %57
  %64 = load ptr, ptr %14, align 8
  %65 = load i32, ptr %64, align 4
  %66 = icmp eq i32 %65, -1
  br i1 %66, label %67, label %68

67:                                               ; preds = %63
  br label %159

68:                                               ; preds = %63
  %69 = load ptr, ptr %12, align 8
  %70 = load i32, ptr %9, align 4
  %71 = sext i32 %70 to i64
  %72 = getelementptr inbounds i32, ptr %69, i64 %71
  %73 = load i32, ptr %72, align 4
  %74 = load i32, ptr %9, align 4
  %75 = sext i32 %74 to i64
  %76 = getelementptr inbounds [5 x i32], ptr @grid_end, i64 0, i64 %75
  %77 = load i32, ptr %76, align 4
  %78 = icmp slt i32 %73, %77
  br i1 %78, label %79, label %88

79:                                               ; preds = %68
  %80 = load ptr, ptr %12, align 8
  %81 = load i32, ptr %9, align 4
  %82 = sext i32 %81 to i64
  %83 = getelementptr inbounds i32, ptr %80, i64 %82
  %84 = load i32, ptr %83, align 4
  %85 = load i32, ptr %9, align 4
  %86 = sext i32 %85 to i64
  %87 = getelementptr inbounds [5 x i32], ptr @grid_end, i64 0, i64 %86
  store i32 %84, ptr %87, align 4
  br label %167

88:                                               ; preds = %68
  store i32 0, ptr %8, align 4
  store i32 1, ptr %18, align 4
  br label %175

89:                                               ; preds = %57
  %90 = load ptr, ptr %14, align 8
  %91 = load i32, ptr %90, align 4
  %92 = icmp eq i32 %91, -1
  br i1 %92, label %93, label %104

93:                                               ; preds = %89
  %94 = load ptr, ptr %11, align 8
  %95 = load ptr, ptr %13, align 8
  %96 = load i32, ptr @dim_grid_size, align 4
  %97 = sext i32 %96 to i64
  call void @llvm.memcpy.p0.p0.i64(ptr align 4 %94, ptr align 4 %95, i64 %97, i1 false)
  %98 = load ptr, ptr %12, align 8
  %99 = load ptr, ptr %13, align 8
  %100 = load i32, ptr @dim_grid_size, align 4
  %101 = sext i32 %100 to i64
  call void @llvm.memcpy.p0.p0.i64(ptr align 4 %98, ptr align 4 %99, i64 %101, i1 false)
  %102 = load i32, ptr %15, align 4
  %103 = load ptr, ptr %14, align 8
  store i32 %102, ptr %103, align 4
  br label %117

104:                                              ; preds = %89
  %105 = load ptr, ptr %14, align 8
  %106 = load i32, ptr %105, align 4
  %107 = load i32, ptr %9, align 4
  %108 = icmp sge i32 %106, %107
  br i1 %108, label %109, label %116

109:                                              ; preds = %104
  %110 = load ptr, ptr %12, align 8
  %111 = load ptr, ptr %13, align 8
  %112 = load i32, ptr @dim_grid_size, align 4
  %113 = sext i32 %112 to i64
  call void @llvm.memcpy.p0.p0.i64(ptr align 4 %110, ptr align 4 %111, i64 %113, i1 false)
  %114 = load i32, ptr %9, align 4
  %115 = load ptr, ptr %14, align 8
  store i32 %114, ptr %115, align 4
  br label %116

116:                                              ; preds = %109, %104
  br label %117

117:                                              ; preds = %116, %93
  br label %158

118:                                              ; preds = %40
  %119 = load i32, ptr %9, align 4
  %120 = add nsw i32 %119, 1
  %121 = load i32, ptr %10, align 4
  %122 = load ptr, ptr %11, align 8
  %123 = load ptr, ptr %12, align 8
  %124 = load ptr, ptr %13, align 8
  %125 = load ptr, ptr %14, align 8
  %126 = load i32, ptr %15, align 4
  %127 = call i32 @_tell_if_used(i32 noundef %120, i32 noundef %121, ptr noundef %122, ptr noundef %123, ptr noundef %124, ptr noundef %125, i32 noundef %126)
  store i32 %127, ptr %16, align 4
  %128 = icmp ne i32 %127, 1
  br i1 %128, label %129, label %131

129:                                              ; preds = %118
  %130 = load i32, ptr %16, align 4
  store i32 %130, ptr %8, align 4
  store i32 1, ptr %18, align 4
  br label %175

131:                                              ; preds = %118
  %132 = load ptr, ptr %14, align 8
  %133 = load i32, ptr %132, align 4
  %134 = load i32, ptr %9, align 4
  %135 = icmp sge i32 %133, %134
  br i1 %135, label %136, label %143

136:                                              ; preds = %131
  %137 = load ptr, ptr %12, align 8
  %138 = load ptr, ptr %13, align 8
  %139 = load i32, ptr @dim_grid_size, align 4
  %140 = sext i32 %139 to i64
  call void @llvm.memcpy.p0.p0.i64(ptr align 4 %137, ptr align 4 %138, i64 %140, i1 false)
  %141 = load i32, ptr %9, align 4
  %142 = load ptr, ptr %14, align 8
  store i32 %141, ptr %142, align 4
  br label %157

143:                                              ; preds = %131
  %144 = load ptr, ptr %14, align 8
  %145 = load i32, ptr %144, align 4
  %146 = icmp eq i32 %145, -1
  br i1 %146, label %147, label %156

147:                                              ; preds = %143
  %148 = load i32, ptr %9, align 4
  %149 = sext i32 %148 to i64
  %150 = getelementptr inbounds [5 x i32], ptr @grid_start, i64 0, i64 %149
  %151 = load i32, ptr %150, align 4
  %152 = load ptr, ptr %11, align 8
  %153 = load i32, ptr %9, align 4
  %154 = sext i32 %153 to i64
  %155 = getelementptr inbounds i32, ptr %152, i64 %154
  store i32 %151, ptr %155, align 4
  br label %156

156:                                              ; preds = %147, %143
  br label %157

157:                                              ; preds = %156, %136
  br label %158

158:                                              ; preds = %157, %117
  br label %159

159:                                              ; preds = %158, %67
  %160 = load ptr, ptr %13, align 8
  %161 = load i32, ptr %9, align 4
  %162 = sext i32 %161 to i64
  %163 = getelementptr inbounds i32, ptr %160, i64 %162
  %164 = load i32, ptr %163, align 4
  %165 = add nsw i32 %164, 1
  store i32 %165, ptr %163, align 4
  br label %29, !llvm.loop !82

166:                                              ; preds = %29
  br label %167

167:                                              ; preds = %166, %79
  %168 = load ptr, ptr %13, align 8
  %169 = load i32, ptr %9, align 4
  %170 = sext i32 %169 to i64
  %171 = getelementptr inbounds i32, ptr %168, i64 %170
  %172 = load i32, ptr %171, align 4
  %173 = add nsw i32 %172, -1
  store i32 %173, ptr %171, align 4
  %174 = load i32, ptr %16, align 4
  store i32 %174, ptr %8, align 4
  store i32 1, ptr %18, align 4
  br label %175

175:                                              ; preds = %167, %129, %88
  call void @llvm.lifetime.end.p0(i64 4, ptr %17) #13
  call void @llvm.lifetime.end.p0(i64 4, ptr %16) #13
  %176 = load i32, ptr %8, align 4
  ret i32 %176
}