; Function Attrs: nounwind uwtable
define internal fastcc range(i32 0, 2) i32 @_tell_if_used(i32 noundef %0, i32 noundef %1, ptr noundef nonnull captures(none) %2, ptr noundef nonnull captures(none) %3, ptr noundef nonnull captures(none) %4, i32 noundef range(i32 2, -2147483648) %5) unnamed_addr #0 {
  %7 = sext i32 %0 to i64
  %8 = getelementptr inbounds i32, ptr %2, i64 %7
  %9 = load i32, ptr %8, align 4
  %10 = getelementptr inbounds i32, ptr @_get_next_box.last, i64 %7
  %11 = getelementptr inbounds [5 x i32], ptr @grid_end, i64 0, i64 %7
  store i32 %9, ptr %10, align 4
  %12 = load i32, ptr %11, align 4
  %.not4 = icmp sgt i32 %9, %12
  br i1 %.not4, label %.loopexit, label %.lr.ph

.lr.ph:                                           ; preds = %6
  %13 = getelementptr inbounds [5 x i32], ptr @offset, i64 0, i64 %7
  %14 = add nsw i32 %5, -1
  %15 = icmp eq i32 %0, %14
  %16 = add nsw i32 %0, 1
  %17 = getelementptr inbounds [5 x i32], ptr @grid_start, i64 0, i64 %7
  br i1 %15, label %.lr.ph.split.us, label %.lr.ph.split

.lr.ph.split.us:                                  ; preds = %.lr.ph, %35
  %storemerge5.us = phi i32 [ %37, %35 ], [ %9, %.lr.ph ]
  %18 = load i32, ptr %13, align 4
  %19 = mul nsw i32 %18, %storemerge5.us
  %20 = add nsw i32 %19, %1
  %21 = load ptr, ptr @bit_grid, align 8
  %22 = sext i32 %20 to i64
  %23 = tail call i32 @slurm_bit_test(ptr noundef %21, i64 noundef %22) #22
  %.not68.us = icmp eq i32 %23, 0
  %24 = load i32, ptr %4, align 4
  %25 = icmp eq i32 %24, -1
  br i1 %.not68.us, label %34, label %26

26:                                               ; preds = %.lr.ph.split.us
  br i1 %25, label %31, label %27

27:                                               ; preds = %26
  %.not69.us = icmp slt i32 %24, %0
  br i1 %.not69.us, label %35, label %28

28:                                               ; preds = %27
  %29 = load i32, ptr @dim_grid_size, align 4
  %30 = sext i32 %29 to i64
  br label %.sink.split

31:                                               ; preds = %26
  %32 = load i32, ptr @dim_grid_size, align 4
  %33 = sext i32 %32 to i64
  tail call void @llvm.memcpy.p0.p0.i64(ptr nonnull align 4 %2, ptr nonnull align 16 @_get_next_box.last, i64 %33, i1 false)
  br label %.sink.split

34:                                               ; preds = %.lr.ph.split.us
  br i1 %25, label %35, label %.split.us

.sink.split:                                      ; preds = %28, %31
  %.sink9 = phi i64 [ %33, %31 ], [ %30, %28 ]
  %.sink = phi i32 [ %5, %31 ], [ %0, %28 ]
  tail call void @llvm.memcpy.p0.p0.i64(ptr nonnull align 4 %3, ptr nonnull align 16 @_get_next_box.last, i64 %.sink9, i1 false)
  store i32 %.sink, ptr %4, align 4
  br label %35

35:                                               ; preds = %.sink.split, %34, %27
  %36 = load i32, ptr %10, align 4
  %37 = add nsw i32 %36, 1
  store i32 %37, ptr %10, align 4
  %38 = load i32, ptr %11, align 4
  %.not.us.not = icmp slt i32 %36, %38
  br i1 %.not.us.not, label %.lr.ph.split.us, label %.loopexit, !llvm.loop !80

.lr.ph.split:                                     ; preds = %.lr.ph, %57
  %storemerge5 = phi i32 [ %59, %57 ], [ %9, %.lr.ph ]
  %39 = load i32, ptr %13, align 4
  %40 = mul nsw i32 %39, %storemerge5
  %41 = add nsw i32 %40, %1
  %42 = tail call fastcc i32 @_tell_if_used(i32 noundef %16, i32 noundef %41, ptr noundef %2, ptr noundef %3, ptr noundef %4, i32 noundef %5)
  %.not66.not = icmp eq i32 %42, 0
  br i1 %.not66.not, label %.loopexit1, label %48

.split.us:                                        ; preds = %34
  %43 = getelementptr inbounds i32, ptr %3, i64 %7
  %44 = load i32, ptr %43, align 4
  %45 = load i32, ptr %11, align 4
  %46 = icmp slt i32 %44, %45
  br i1 %46, label %47, label %.loopexit1

47:                                               ; preds = %.split.us
  store i32 %44, ptr %11, align 4
  %.pre = load i32, ptr %10, align 4
  br label %.loopexit

48:                                               ; preds = %.lr.ph.split
  %49 = load i32, ptr %4, align 4
  %.not67 = icmp slt i32 %49, %0
  br i1 %.not67, label %53, label %50

50:                                               ; preds = %48
  %51 = load i32, ptr @dim_grid_size, align 4
  %52 = sext i32 %51 to i64
  tail call void @llvm.memcpy.p0.p0.i64(ptr nonnull align 4 %3, ptr nonnull align 16 @_get_next_box.last, i64 %52, i1 false)
  store i32 %0, ptr %4, align 4
  br label %57

53:                                               ; preds = %48
  %54 = icmp eq i32 %49, -1
  br i1 %54, label %55, label %57

55:                                               ; preds = %53
  %56 = load i32, ptr %17, align 4
  store i32 %56, ptr %8, align 4
  br label %57

57:                                               ; preds = %53, %55, %50
  %58 = load i32, ptr %10, align 4
  %59 = add nsw i32 %58, 1
  store i32 %59, ptr %10, align 4
  %60 = load i32, ptr %11, align 4
  %.not.not = icmp slt i32 %58, %60
  br i1 %.not.not, label %.lr.ph.split, label %.loopexit, !llvm.loop !80

.loopexit:                                        ; preds = %57, %35, %6, %47
  %61 = phi i32 [ %9, %6 ], [ %.pre, %47 ], [ %37, %35 ], [ %59, %57 ]
  %62 = add nsw i32 %61, -1
  store i32 %62, ptr %10, align 4
  br label %.loopexit1

.loopexit1:                                       ; preds = %.lr.ph.split, %.split.us, %.loopexit
  %.0 = phi i32 [ 1, %.loopexit ], [ 0, %.split.us ], [ 0, %.lr.ph.split ]
  ret i32 %.0
}